target datalayout = "e-m:e-p270:32:32-p271:32:32-p272:64:64-i64:64-i128:128-f80:128-n8:16:32:64-S128"
target triple = "x86_64-pc-linux-gnu"

%"struct.duckdb_libpgquery::PGTypeName" = type { i32, ptr, i32, i8, i8, ptr, i32, ptr, i32 }

; Function Attrs: mustprogress uwtable
define hidden noundef ptr @_ZN17duckdb_libpgquery24makeTypeNameFromNameListEPNS_6PGListE(ptr noundef %0) #0 {
  %2 = alloca ptr, align 8
  %3 = alloca ptr, align 8
  store ptr %0, ptr %2, align 8, !tbaa !7
  call void @llvm.lifetime.start.p0(i64 8, ptr %3) #3
  %4 = call noundef ptr @_ZN17duckdb_libpgquery7newNodeEmNS_9PGNodeTagE(i64 noundef 56, i32 noundef 372)
  store ptr %4, ptr %3, align 8, !tbaa !51
  %5 = load ptr, ptr %2, align 8, !tbaa !7
  %6 = load ptr, ptr %3, align 8, !tbaa !51
  %7 = getelementptr inbounds nuw %"struct.duckdb_libpgquery::PGTypeName", ptr %6, i32 0, i32 1
  store ptr %5, ptr %7, align 8, !tbaa !53
  %8 = load ptr, ptr %3, align 8, !tbaa !51
  %9 = getelementptr inbounds nuw %"struct.duckdb_libpgquery::PGTypeName", ptr %8, i32 0, i32 5
  store ptr null, ptr %9, align 8, !tbaa !55
  %10 = load ptr, ptr %3, align 8, !tbaa !51
  %11 = getelementptr inbounds nuw %"struct.duckdb_libpgquery::PGTypeName", ptr %10, i32 0, i32 6
  store i32 -1, ptr %11, align 8, !tbaa !56
  %12 = load ptr, ptr %3, align 8, !tbaa !51
  %13 = getelementptr inbounds nuw %"struct.duckdb_libpgquery::PGTypeName", ptr %12, i32 0, i32 8
  store i32 -1, ptr %13, align 8, !tbaa !57
  %14 = load ptr, ptr %3, align 8, !tbaa !51
  call void @llvm.lifetime.end.p0(i64 8, ptr %3) #3
  ret ptr %14
}