; Function Attrs: mustprogress uwtable
define hidden noundef ptr @_ZN17duckdb_libpgquery24makeTypeNameFromNameListEPNS_6PGListE(ptr noundef %0) local_unnamed_addr #0 {
  %2 = tail call noundef ptr @_ZN17duckdb_libpgquery7newNodeEmNS_9PGNodeTagE(i64 noundef 56, i32 noundef 372)
  %3 = getelementptr inbounds nuw i8, ptr %2, i64 8
  store ptr %0, ptr %3, align 8, !tbaa !38
  %4 = getelementptr inbounds nuw i8, ptr %2, i64 24
  store ptr null, ptr %4, align 8, !tbaa !40
  %5 = getelementptr inbounds nuw i8, ptr %2, i64 32
  store i32 -1, ptr %5, align 8, !tbaa !41
  %6 = getelementptr inbounds nuw i8, ptr %2, i64 48
  store i32 -1, ptr %6, align 8, !tbaa !42
  ret ptr %2
}